target datalayout = "e-m:e-p270:32:32-p271:32:32-p272:64:64-i64:64-i128:128-f80:128-n8:16:32:64-S128"
target triple = "x86_64-pc-linux-gnu"

%struct._zval_struct = type { %union._zend_value, %union.anon.0, %union.anon.3 }
%union._zend_value = type { i64 }
%union.anon.0 = type { i32 }
%union.anon.3 = type { i32 }
%struct._zend_array = type { %struct._zend_refcounted_h, %union.anon.4, i32, %union.anon.6, i32, i32, i32, i32, i64, ptr }
%struct._zend_refcounted_h = type { i32, %union.anon }
%union.anon = type { i32 }
%union.anon.4 = type { i32 }
%union.anon.6 = type { ptr }
%struct._zend_object = type { %struct._zend_refcounted_h, i32, ptr, ptr, ptr, [1 x %struct._zval_struct] }
%struct._zend_class_entry = type { i8, ptr, %union.anon.7, i32, i32, i32, i32, ptr, ptr, ptr, %struct._zend_array, %struct._zend_array, %struct._zend_array, ptr, ptr, ptr, ptr, ptr, ptr, ptr, ptr, ptr, ptr, ptr, ptr, ptr, ptr, ptr, ptr, ptr, ptr, ptr, %union.anon.8, ptr, ptr, ptr, ptr, i32, i32, %union.anon.9, ptr, ptr, ptr, ptr, i32, ptr, ptr, %union.anon.10 }
%union.anon.7 = type { ptr }
%union.anon.8 = type { ptr }
%union.anon.9 = type { ptr }
%union.anon.10 = type { %struct.anon.11 }
%struct.anon.11 = type { ptr, i32, i32 }

; Function Attrs: nounwind uwtable
define void @zend_object_std_init(ptr noundef %0, ptr noundef %1) #0 {
  %3 = alloca ptr, align 8
  %4 = alloca i32, align 4
  %5 = alloca ptr, align 8
  %6 = alloca ptr, align 8
  %7 = alloca ptr, align 8
  %8 = alloca ptr, align 8
  %9 = alloca ptr, align 8
  store ptr %0, ptr %8, align 8
  store ptr %1, ptr %9, align 8
  %10 = load ptr, ptr %8, align 8
  %11 = load ptr, ptr %9, align 8
  store ptr %10, ptr %5, align 8
  store ptr %11, ptr %6, align 8
  %12 = load ptr, ptr %5, align 8
  store ptr %12, ptr %3, align 8
  store i32 1, ptr %4, align 4
  %13 = load i32, ptr %4, align 4
  %14 = load ptr, ptr %3, align 8
  store i32 %13, ptr %14, align 4
  %15 = load ptr, ptr %5, align 8
  %16 = getelementptr inbounds %struct._zend_refcounted_h, ptr %15, i32 0, i32 1
  store i32 8, ptr %16, align 4
  %17 = load ptr, ptr %6, align 8
  %18 = load ptr, ptr %5, align 8
  %19 = getelementptr inbounds %struct._zend_object, ptr %18, i32 0, i32 2
  store ptr %17, ptr %19, align 8
  %20 = load ptr, ptr %6, align 8
  %21 = getelementptr inbounds %struct._zend_class_entry, ptr %20, i32 0, i32 29
  %22 = load ptr, ptr %21, align 8
  %23 = load ptr, ptr %5, align 8
  %24 = getelementptr inbounds %struct._zend_object, ptr %23, i32 0, i32 3
  store ptr %22, ptr %24, align 8
  %25 = load ptr, ptr %5, align 8
  %26 = getelementptr inbounds %struct._zend_object, ptr %25, i32 0, i32 4
  store ptr null, ptr %26, align 8
  %27 = load ptr, ptr %5, align 8
  call void @zend_objects_store_put(ptr noundef %27) #6
  %28 = load ptr, ptr %6, align 8
  %29 = getelementptr inbounds %struct._zend_class_entry, ptr %28, i32 0, i32 4
  %30 = load i32, ptr %29, align 4
  %31 = and i32 %30, 2048
  %32 = icmp ne i32 %31, 0
  br i1 %32, label %33, label %47

33:                                               ; preds = %2
  %34 = load ptr, ptr %5, align 8
  %35 = getelementptr inbounds %struct._zend_object, ptr %34, i32 0, i32 5
  %36 = load ptr, ptr %5, align 8
  %37 = getelementptr inbounds %struct._zend_object, ptr %36, i32 0, i32 2
  %38 = load ptr, ptr %37, align 8
  %39 = getelementptr inbounds %struct._zend_class_entry, ptr %38, i32 0, i32 5
  %40 = load i32, ptr %39, align 8
  %41 = sext i32 %40 to i64
  %42 = getelementptr inbounds %struct._zval_struct, ptr %35, i64 %41
  store ptr %42, ptr %7, align 8
  %43 = load ptr, ptr %7, align 8
  %44 = getelementptr inbounds %struct._zval_struct, ptr %43, i32 0, i32 1
  store i32 0, ptr %44, align 8
  %45 = load ptr, ptr %7, align 8
  %46 = getelementptr inbounds %struct._zval_struct, ptr %45, i32 0, i32 2
  store i32 0, ptr %46, align 4
  br label %47

47:                                               ; preds = %33, %2
  ret void
}