; Function Attrs: nounwind uwtable
define void @zend_object_std_init(ptr noundef %0, ptr noundef %1) local_unnamed_addr #0 {
  store i32 1, ptr %0, align 4
  %3 = getelementptr inbounds i8, ptr %0, i64 4
  store i32 8, ptr %3, align 4
  %4 = getelementptr inbounds i8, ptr %0, i64 16
  store ptr %1, ptr %4, align 8
  %5 = getelementptr inbounds i8, ptr %1, i64 360
  %6 = load ptr, ptr %5, align 8
  %7 = getelementptr inbounds i8, ptr %0, i64 24
  store ptr %6, ptr %7, align 8
  %8 = getelementptr inbounds i8, ptr %0, i64 32
  store ptr null, ptr %8, align 8
  tail call void @zend_objects_store_put(ptr noundef nonnull %0) #6
  %9 = getelementptr inbounds i8, ptr %1, i64 28
  %10 = load i32, ptr %9, align 4
  %11 = and i32 %10, 2048
  %.not = icmp eq i32 %11, 0
  br i1 %.not, label %21, label %12

12:                                               ; preds = %2
  %13 = getelementptr inbounds i8, ptr %0, i64 40
  %14 = load ptr, ptr %4, align 8
  %15 = getelementptr inbounds i8, ptr %14, i64 32
  %16 = load i32, ptr %15, align 8
  %17 = sext i32 %16 to i64
  %18 = getelementptr inbounds %struct._zval_struct, ptr %13, i64 %17
  %19 = getelementptr inbounds i8, ptr %18, i64 8
  store i32 0, ptr %19, align 8
  %20 = getelementptr inbounds i8, ptr %18, i64 12
  store i32 0, ptr %20, align 4
  br label %21

21:                                               ; preds = %12, %2
  ret void
}